; ModuleID = '44/1099.c'
source_filename = "44/1099.c"
target datalayout = "e-m:e-p270:32:32-p271:32:32-p272:64:64-i64:64-f80:128-n8:16:32:64-S128"
target triple = "x86_64-pc-linux-gnu"

@.str = private unnamed_addr constant [3 x i8] c"%d\00", align 1
@.str.1 = private unnamed_addr constant [4 x i8] c"%d\0A\00", align 1

; Function Attrs: noinline nounwind uwtable
define dso_local i32 @reverse(i32 %0) #0 {
  %2 = alloca i32, align 4
  %3 = alloca i32, align 4
  %4 = alloca i32, align 4
  %5 = alloca i32, align 4
  %6 = alloca i32, align 4
  store i32 %0, i32* %3, align 4
  %7 = load i32, i32* %3, align 4
  %8 = call i32 @abs(i32 %7) #3
  store i32 %8, i32* %4, align 4
  store i32 0, i32* %6, align 4
  br label %9

9:                                                ; preds = %12, %1
  %10 = load i32, i32* %4, align 4
  %11 = icmp sge i32 %10, 10
  br i1 %11, label %12, label %21

12:                                               ; preds = %9
  %13 = load i32, i32* %4, align 4
  %14 = srem i32 %13, 10
  store i32 %14, i32* %5, align 4
  %15 = load i32, i32* %4, align 4
  %16 = sdiv i32 %15, 10
  store i32 %16, i32* %4, align 4
  %17 = load i32, i32* %6, align 4
  %18 = mul nsw i32 %17, 10
  %19 = load i32, i32* %5, align 4
  %20 = add nsw i32 %18, %19
  store i32 %20, i32* %6, align 4
  br label %9

21:                                               ; preds = %9
  %22 = load i32, i32* %4, align 4
  %23 = srem i32 %22, 10
  store i32 %23, i32* %5, align 4
  %24 = load i32, i32* %6, align 4
  %25 = mul nsw i32 %24, 10
  %26 = load i32, i32* %5, align 4
  %27 = add nsw i32 %25, %26
  store i32 %27, i32* %6, align 4
  %28 = load i32, i32* %3, align 4
  %29 = icmp eq i32 %28, 0
  br i1 %29, label %30, label %31

30:                                               ; preds = %21
  store i32 0, i32* %2, align 4
  br label %44

31:                                               ; preds = %21
  %32 = load i32, i32* %3, align 4
  %33 = icmp sgt i32 %32, 0
  br i1 %33, label %34, label %36

34:                                               ; preds = %31
  %35 = load i32, i32* %6, align 4
  store i32 %35, i32* %2, align 4
  br label %44

36:                                               ; preds = %31
  %37 = load i32, i32* %3, align 4
  %38 = icmp slt i32 %37, 0
  br i1 %38, label %39, label %42

39:                                               ; preds = %36
  %40 = load i32, i32* %6, align 4
  %41 = sub nsw i32 0, %40
  store i32 %41, i32* %2, align 4
  br label %44

42:                                               ; preds = %36
  br label %43

43:                                               ; preds = %42
  br label %44

44:                                               ; preds = %30, %34, %39, %43
  %45 = load i32, i32* %2, align 4
  ret i32 %45
}

; Function Attrs: nounwind readnone
declare dso_local i32 @abs(i32) #1

; Function Attrs: noinline nounwind uwtable
define dso_local i32 @main() #0 {
  %1 = alloca i32, align 4
  %2 = alloca i32, align 4
  %3 = alloca i32, align 4
  store i32 0, i32* %1, align 4
  store i32 1, i32* %3, align 4
  br label %4

4:                                                ; preds = %13, %0
  %5 = load i32, i32* %3, align 4
  %6 = icmp sle i32 %5, 6
  br i1 %6, label %7, label %16

7:                                                ; preds = %4
  %8 = call i32 (i8*, ...) @__isoc99_scanf(i8* getelementptr inbounds ([3 x i8], [3 x i8]* @.str, i64 0, i64 0), i32* %2)
  %9 = load i32, i32* %2, align 4
  %10 = call i32 @reverse(i32 %9)
  store i32 %10, i32* %2, align 4
  %11 = load i32, i32* %2, align 4
  %12 = call i32 (i8*, ...) @printf(i8* getelementptr inbounds ([4 x i8], [4 x i8]* @.str.1, i64 0, i64 0), i32 %11)
  br label %13

13:                                               ; preds = %7
  %14 = load i32, i32* %3, align 4
  %15 = add nsw i32 %14, 1
  store i32 %15, i32* %3, align 4
  br label %4

16:                                               ; preds = %4
  ret i32 0
}

declare dso_local i32 @__isoc99_scanf(i8*, ...) #2

declare dso_local i32 @printf(i8*, ...) #2


!llvm.module.flags = !{!0}
!llvm.ident = !{!1}

!0 = !{i32 1, !"wchar_size", i32 4}
!1 = !{!"clang version 10.0.0-4ubuntu1 "}
